; Function Attrs: mustprogress uwtable
define hidden void @_ZN19OpenColorIO_v2_4dev11RangeOpDataC2Edddd(ptr noundef nonnull align 8 dereferenceable(228) %this, double noundef %minInValue, double noundef %maxInValue, double noundef %minOutValue, double noundef %maxOutValue) unnamed_addr #3 align 2 personality ptr @__gxx_personality_v0 {
entry:
  tail call void @_ZN19OpenColorIO_v2_4dev6OpDataC2Ev(ptr noundef nonnull align 8 dereferenceable(168) %this)
  store ptr getelementptr inbounds ({ [13 x ptr] }, ptr @_ZTVN19OpenColorIO_v2_4dev11RangeOpDataE, i64 0, i32 0, i64 2), ptr %this, align 8
  %m_minInValue = getelementptr inbounds i8, ptr %this, i64 168
  store double %minInValue, ptr %m_minInValue, align 8
  %m_maxInValue = getelementptr inbounds i8, ptr %this, i64 176
  store double %maxInValue, ptr %m_maxInValue, align 8
  %m_minOutValue = getelementptr inbounds i8, ptr %this, i64 184
  store double %minOutValue, ptr %m_minOutValue, align 8
  %m_maxOutValue = getelementptr inbounds i8, ptr %this, i64 192
  store double %maxOutValue, ptr %m_maxOutValue, align 8
  %m_scale = getelementptr inbounds i8, ptr %this, i64 200
  tail call void @llvm.memset.p0.i64(ptr noundef nonnull align 8 dereferenceable(28) %m_scale, i8 0, i64 28, i1 false)
  invoke void @_ZNK19OpenColorIO_v2_4dev11RangeOpData8validateEv(ptr noundef nonnull align 8 dereferenceable(228) %this)
          to label %invoke.cont unwind label %lpad

invoke.cont:                                      ; preds = %entry
  ret void

lpad:                                             ; preds = %entry
  %0 = landingpad { ptr, i32 }
          cleanup
  store ptr getelementptr inbounds ({ [13 x ptr] }, ptr @_ZTVN19OpenColorIO_v2_4dev6OpDataE, i64 0, i32 0, i64 2), ptr %this, align 8
  %m_metadata.i = getelementptr inbounds i8, ptr %this, i64 48
  tail call void @_ZN19OpenColorIO_v2_4dev18FormatMetadataImplD1Ev(ptr noundef nonnull align 8 dereferenceable(120) %m_metadata.i) #17
  resume { ptr, i32 } %0
}